target datalayout = "e-m:e-p270:32:32-p271:32:32-p272:64:64-i64:64-i128:128-f80:128-n8:16:32:64-S128"
target triple = "x86_64-pc-linux-gnu"

; Function Attrs: nounwind uwtable
define internal i64 @decode_length(ptr noundef %0, ptr noundef %1, ptr noundef %2, i32 noundef %3, i64 noundef %4, ptr noundef %5, ptr noundef %6, i64 noundef %7) #0 {
  %9 = alloca i64, align 8
  %10 = alloca ptr, align 8
  %11 = alloca ptr, align 8
  %12 = alloca ptr, align 8
  %13 = alloca i32, align 4
  %14 = alloca i64, align 8
  %15 = alloca ptr, align 8
  %16 = alloca ptr, align 8
  %17 = alloca i64, align 8
  %18 = alloca i32, align 4
  %19 = alloca i32, align 4
  %20 = alloca ptr, align 8
  %21 = alloca i32, align 4
  %22 = alloca i32, align 4
  store ptr %0, ptr %10, align 8, !tbaa !100
  store ptr %1, ptr %11, align 8, !tbaa !112
  store ptr %2, ptr %12, align 8, !tbaa !100
  store i32 %3, ptr %13, align 4, !tbaa !13
  store i64 %4, ptr %14, align 8, !tbaa !38
  store ptr %5, ptr %15, align 8, !tbaa !85
  store ptr %6, ptr %16, align 8, !tbaa !85
  store i64 %7, ptr %17, align 8, !tbaa !38
  call void @llvm.lifetime.start.p0(i64 4, ptr %18) #6
  %23 = load i64, ptr %17, align 8, !tbaa !38
  %24 = trunc i64 %23 to i32
  %25 = shl i32 1, %24
  %26 = sub nsw i32 %25, 1
  %27 = trunc i32 %26 to i8
  %28 = zext i8 %27 to i32
  store i32 %28, ptr %18, align 4, !tbaa !13
  call void @llvm.lifetime.start.p0(i64 4, ptr %19) #6
  %29 = load i32, ptr %13, align 4, !tbaa !13
  store i32 %29, ptr %19, align 4, !tbaa !13
  call void @llvm.lifetime.start.p0(i64 8, ptr %20) #6
  %30 = load ptr, ptr %15, align 8, !tbaa !85
  store ptr %30, ptr %20, align 8, !tbaa !85
  %31 = load ptr, ptr %11, align 8, !tbaa !112
  store i64 0, ptr %31, align 8, !tbaa !38
  %32 = load ptr, ptr %12, align 8, !tbaa !100
  store i32 0, ptr %32, align 4, !tbaa !13
  %33 = load i32, ptr %19, align 4, !tbaa !13
  %34 = icmp eq i32 %33, 0
  br i1 %34, label %35, label %66

35:                                               ; preds = %8
  %36 = load ptr, ptr %15, align 8, !tbaa !85
  %37 = load i8, ptr %36, align 1, !tbaa !15
  %38 = zext i8 %37 to i32
  %39 = load i32, ptr %18, align 4, !tbaa !13
  %40 = and i32 %38, %39
  %41 = load i32, ptr %18, align 4, !tbaa !13
  %42 = icmp ne i32 %40, %41
  br i1 %42, label %43, label %51

43:                                               ; preds = %35
  %44 = load ptr, ptr %15, align 8, !tbaa !85
  %45 = load i8, ptr %44, align 1, !tbaa !15
  %46 = zext i8 %45 to i32
  %47 = load i32, ptr %18, align 4, !tbaa !13
  %48 = and i32 %46, %47
  %49 = load ptr, ptr %10, align 8, !tbaa !100
  store i32 %48, ptr %49, align 4, !tbaa !13
  %50 = load ptr, ptr %12, align 8, !tbaa !100
  store i32 1, ptr %50, align 4, !tbaa !13
  store i64 1, ptr %9, align 8
  store i32 1, ptr %21, align 4
  br label %148

51:                                               ; preds = %35
  %52 = load i32, ptr %18, align 4, !tbaa !13
  store i32 %52, ptr %19, align 4, !tbaa !13
  %53 = load ptr, ptr %15, align 8, !tbaa !85
  %54 = getelementptr inbounds nuw i8, ptr %53, i32 1
  store ptr %54, ptr %15, align 8, !tbaa !85
  %55 = load ptr, ptr %16, align 8, !tbaa !85
  %56 = icmp eq ptr %54, %55
  br i1 %56, label %57, label %65

57:                                               ; preds = %51
  %58 = load i32, ptr %19, align 4, !tbaa !13
  %59 = load ptr, ptr %10, align 8, !tbaa !100
  store i32 %58, ptr %59, align 4, !tbaa !13
  %60 = load ptr, ptr %15, align 8, !tbaa !85
  %61 = load ptr, ptr %20, align 8, !tbaa !85
  %62 = ptrtoint ptr %60 to i64
  %63 = ptrtoint ptr %61 to i64
  %64 = sub i64 %62, %63
  store i64 %64, ptr %9, align 8
  store i32 1, ptr %21, align 4
  br label %148

65:                                               ; preds = %51
  br label %66

66:                                               ; preds = %65, %8
  br label %67

67:                                               ; preds = %119, %66
  %68 = load ptr, ptr %15, align 8, !tbaa !85
  %69 = load ptr, ptr %16, align 8, !tbaa !85
  %70 = icmp ne ptr %68, %69
  br i1 %70, label %71, label %124

71:                                               ; preds = %67
  call void @llvm.lifetime.start.p0(i64 4, ptr %22) #6
  %72 = load ptr, ptr %15, align 8, !tbaa !85
  %73 = load i8, ptr %72, align 1, !tbaa !15
  %74 = zext i8 %73 to i32
  %75 = and i32 %74, 127
  store i32 %75, ptr %22, align 4, !tbaa !13
  %76 = load i64, ptr %14, align 8, !tbaa !38
  %77 = icmp uge i64 %76, 32
  br i1 %77, label %78, label %82

78:                                               ; preds = %71
  br label %79

79:                                               ; preds = %78
  br label %80

80:                                               ; preds = %79
  br label %81

81:                                               ; preds = %80
  store i64 -1, ptr %9, align 8
  store i32 1, ptr %21, align 4
  br label %116

82:                                               ; preds = %71
  %83 = load i64, ptr %14, align 8, !tbaa !38
  %84 = trunc i64 %83 to i32
  %85 = lshr i32 -1, %84
  %86 = load i32, ptr %22, align 4, !tbaa !13
  %87 = icmp ult i32 %85, %86
  br i1 %87, label %88, label %92

88:                                               ; preds = %82
  br label %89

89:                                               ; preds = %88
  br label %90

90:                                               ; preds = %89
  br label %91

91:                                               ; preds = %90
  store i64 -1, ptr %9, align 8
  store i32 1, ptr %21, align 4
  br label %116

92:                                               ; preds = %82
  %93 = load i64, ptr %14, align 8, !tbaa !38
  %94 = load i32, ptr %22, align 4, !tbaa !13
  %95 = trunc i64 %93 to i32
  %96 = shl i32 %94, %95
  store i32 %96, ptr %22, align 4, !tbaa !13
  %97 = load i32, ptr %22, align 4, !tbaa !13
  %98 = sub i32 -1, %97
  %99 = load i32, ptr %19, align 4, !tbaa !13
  %100 = icmp ult i32 %98, %99
  br i1 %100, label %101, label %105

101:                                              ; preds = %92
  br label %102

102:                                              ; preds = %101
  br label %103

103:                                              ; preds = %102
  br label %104

104:                                              ; preds = %103
  store i64 -1, ptr %9, align 8
  store i32 1, ptr %21, align 4
  br label %116

105:                                              ; preds = %92
  %106 = load i32, ptr %22, align 4, !tbaa !13
  %107 = load i32, ptr %19, align 4, !tbaa !13
  %108 = add i32 %107, %106
  store i32 %108, ptr %19, align 4, !tbaa !13
  %109 = load ptr, ptr %15, align 8, !tbaa !85
  %110 = load i8, ptr %109, align 1, !tbaa !15
  %111 = zext i8 %110 to i32
  %112 = and i32 %111, 128
  %113 = icmp eq i32 %112, 0
  br i1 %113, label %114, label %115

114:                                              ; preds = %105
  store i32 2, ptr %21, align 4
  br label %116

115:                                              ; preds = %105
  store i32 0, ptr %21, align 4
  br label %116

116:                                              ; preds = %115, %114, %104, %91, %81
  call void @llvm.lifetime.end.p0(i64 4, ptr %22) #6
  %117 = load i32, ptr %21, align 4
  switch i32 %117, label %148 [
    i32 0, label %118
    i32 2, label %124
  ]

118:                                              ; preds = %116
  br label %119

119:                                              ; preds = %118
  %120 = load ptr, ptr %15, align 8, !tbaa !85
  %121 = getelementptr inbounds nuw i8, ptr %120, i32 1
  store ptr %121, ptr %15, align 8, !tbaa !85
  %122 = load i64, ptr %14, align 8, !tbaa !38
  %123 = add i64 %122, 7
  store i64 %123, ptr %14, align 8, !tbaa !38
  br label %67, !llvm.loop !114

124:                                              ; preds = %116, %67
  %125 = load i64, ptr %14, align 8, !tbaa !38
  %126 = load ptr, ptr %11, align 8, !tbaa !112
  store i64 %125, ptr %126, align 8, !tbaa !38
  %127 = load ptr, ptr %15, align 8, !tbaa !85
  %128 = load ptr, ptr %16, align 8, !tbaa !85
  %129 = icmp eq ptr %127, %128
  br i1 %129, label %130, label %138

130:                                              ; preds = %124
  %131 = load i32, ptr %19, align 4, !tbaa !13
  %132 = load ptr, ptr %10, align 8, !tbaa !100
  store i32 %131, ptr %132, align 4, !tbaa !13
  %133 = load ptr, ptr %15, align 8, !tbaa !85
  %134 = load ptr, ptr %20, align 8, !tbaa !85
  %135 = ptrtoint ptr %133 to i64
  %136 = ptrtoint ptr %134 to i64
  %137 = sub i64 %135, %136
  store i64 %137, ptr %9, align 8
  store i32 1, ptr %21, align 4
  br label %148

138:                                              ; preds = %124
  %139 = load i32, ptr %19, align 4, !tbaa !13
  %140 = load ptr, ptr %10, align 8, !tbaa !100
  store i32 %139, ptr %140, align 4, !tbaa !13
  %141 = load ptr, ptr %12, align 8, !tbaa !100
  store i32 1, ptr %141, align 4, !tbaa !13
  %142 = load ptr, ptr %15, align 8, !tbaa !85
  %143 = getelementptr inbounds i8, ptr %142, i64 1
  %144 = load ptr, ptr %20, align 8, !tbaa !85
  %145 = ptrtoint ptr %143 to i64
  %146 = ptrtoint ptr %144 to i64
  %147 = sub i64 %145, %146
  store i64 %147, ptr %9, align 8
  store i32 1, ptr %21, align 4
  br label %148

148:                                              ; preds = %138, %130, %116, %57, %43
  call void @llvm.lifetime.end.p0(i64 8, ptr %20) #6
  call void @llvm.lifetime.end.p0(i64 4, ptr %19) #6
  call void @llvm.lifetime.end.p0(i64 4, ptr %18) #6
  %149 = load i64, ptr %9, align 8
  ret i64 %149
}

; Function Attrs: nounwind uwtable
define dso_local i64 @nghttp2_hd_decode_length(ptr noundef %0, ptr noundef %1, ptr noundef %2, i32 noundef %3, i64 noundef %4, ptr noundef %5, ptr noundef %6, i64 noundef %7) #0 {
  %9 = alloca ptr, align 8
  %10 = alloca ptr, align 8
  %11 = alloca ptr, align 8
  %12 = alloca i32, align 4
  %13 = alloca i64, align 8
  %14 = alloca ptr, align 8
  %15 = alloca ptr, align 8
  %16 = alloca i64, align 8
  store ptr %0, ptr %9, align 8, !tbaa !100
  store ptr %1, ptr %10, align 8, !tbaa !112
  store ptr %2, ptr %11, align 8, !tbaa !100
  store i32 %3, ptr %12, align 4, !tbaa !13
  store i64 %4, ptr %13, align 8, !tbaa !38
  store ptr %5, ptr %14, align 8, !tbaa !85
  store ptr %6, ptr %15, align 8, !tbaa !85
  store i64 %7, ptr %16, align 8, !tbaa !38
  %17 = load ptr, ptr %9, align 8, !tbaa !100
  %18 = load ptr, ptr %10, align 8, !tbaa !112
  %19 = load ptr, ptr %11, align 8, !tbaa !100
  %20 = load i32, ptr %12, align 4, !tbaa !13
  %21 = load i64, ptr %13, align 8, !tbaa !38
  %22 = load ptr, ptr %14, align 8, !tbaa !85
  %23 = load ptr, ptr %15, align 8, !tbaa !85
  %24 = load i64, ptr %16, align 8, !tbaa !38
  %25 = call i64 @decode_length(ptr noundef %17, ptr noundef %18, ptr noundef %19, i32 noundef %20, i64 noundef %21, ptr noundef %22, ptr noundef %23, i64 noundef %24)
  ret i64 %25
}