; Function Attrs: nofree norecurse nosync nounwind memory(argmem: readwrite) uwtable
define dso_local i64 @nghttp2_hd_decode_length(ptr noundef writeonly captures(none) %0, ptr noundef writeonly captures(none) initializes((0, 8)) %1, ptr noundef writeonly captures(none) initializes((0, 4)) %2, i32 noundef %3, i64 noundef %4, ptr noundef %5, ptr noundef %6, i64 noundef %7) local_unnamed_addr #7 {
  %9 = trunc i64 %7 to i32
  %notmask.i = shl nsw i32 -1, %9
  %10 = and i32 %notmask.i, 255
  %11 = xor i32 %10, 255
  store i64 0, ptr %1, align 8, !tbaa !105
  store i32 0, ptr %2, align 4, !tbaa !10
  %12 = icmp eq i32 %3, 0
  br i1 %12, label %13, label %22

13:                                               ; preds = %8
  %14 = load i8, ptr %5, align 1, !tbaa !12
  %15 = zext i8 %14 to i32
  %16 = and i32 %11, %15
  %.not.i = icmp eq i32 %16, %11
  br i1 %.not.i, label %18, label %17

17:                                               ; preds = %13
  store i32 %16, ptr %0, align 4, !tbaa !10
  store i32 1, ptr %2, align 4, !tbaa !10
  br label %decode_length.exit

18:                                               ; preds = %13
  %19 = getelementptr inbounds nuw i8, ptr %5, i64 1
  %20 = icmp eq ptr %19, %6
  br i1 %20, label %21, label %22

21:                                               ; preds = %18
  store i32 %11, ptr %0, align 4, !tbaa !10
  br label %decode_length.exit

22:                                               ; preds = %18, %8
  %.054.i = phi ptr [ %19, %18 ], [ %5, %8 ]
  %.050.i = phi i32 [ %11, %18 ], [ %3, %8 ]
  %.not6278.i = icmp eq ptr %.054.i, %6
  br i1 %.not6278.i, label %._crit_edge.i, label %.lr.ph.i

.lr.ph.i:                                         ; preds = %22, %38
  %.15181.i = phi i32 [ %36, %38 ], [ %.050.i, %22 ]
  %.05380.i = phi i64 [ %40, %38 ], [ %4, %22 ]
  %.15579.i = phi ptr [ %39, %38 ], [ %.054.i, %22 ]
  %23 = load i8, ptr %.15579.i, align 1, !tbaa !12
  %24 = and i8 %23, 127
  %25 = zext nneg i8 %24 to i32
  %26 = icmp ugt i64 %.05380.i, 31
  br i1 %26, label %decode_length.exit, label %27

27:                                               ; preds = %.lr.ph.i
  %28 = trunc nuw nsw i64 %.05380.i to i32
  %29 = lshr i32 -1, %28
  %30 = icmp ult i32 %29, %25
  br i1 %30, label %decode_length.exit, label %31

31:                                               ; preds = %27
  %32 = shl i32 %25, %28
  %33 = xor i32 %32, -1
  %34 = icmp ugt i32 %.15181.i, %33
  br i1 %34, label %decode_length.exit, label %35

35:                                               ; preds = %31
  %36 = add i32 %32, %.15181.i
  %37 = icmp sgt i8 %23, -1
  br i1 %37, label %43, label %38

38:                                               ; preds = %35
  %39 = getelementptr inbounds nuw i8, ptr %.15579.i, i64 1
  %40 = add nuw nsw i64 %.05380.i, 7
  %.not62.i = icmp eq ptr %39, %6
  br i1 %.not62.i, label %._crit_edge.i, label %.lr.ph.i, !llvm.loop !106

._crit_edge.i:                                    ; preds = %38, %22
  %.053.lcssa.i = phi i64 [ %4, %22 ], [ %40, %38 ]
  %.151.lcssa.i = phi i32 [ %.050.i, %22 ], [ %36, %38 ]
  %.pre-phi.i = ptrtoint ptr %6 to i64
  store i64 %.053.lcssa.i, ptr %1, align 8, !tbaa !105
  store i32 %.151.lcssa.i, ptr %0, align 4, !tbaa !10
  %41 = ptrtoint ptr %5 to i64
  %42 = sub i64 %.pre-phi.i, %41
  br label %decode_length.exit

43:                                               ; preds = %35
  store i64 %.05380.i, ptr %1, align 8, !tbaa !105
  store i32 %36, ptr %0, align 4, !tbaa !10
  store i32 1, ptr %2, align 4, !tbaa !10
  %44 = getelementptr inbounds nuw i8, ptr %.15579.i, i64 1
  %45 = ptrtoint ptr %44 to i64
  %46 = ptrtoint ptr %5 to i64
  %47 = sub i64 %45, %46
  br label %decode_length.exit

decode_length.exit:                               ; preds = %.lr.ph.i, %27, %31, %17, %21, %._crit_edge.i, %43
  %.049.i = phi i64 [ 1, %17 ], [ 1, %21 ], [ %42, %._crit_edge.i ], [ %47, %43 ], [ -1, %31 ], [ -1, %27 ], [ -1, %.lr.ph.i ]
  ret i64 %.049.i
}